target datalayout = "e-m:e-p270:32:32-p271:32:32-p272:64:64-i64:64-i128:128-f80:128-n8:16:32:64-S128"
target triple = "x86_64-pc-linux-gnu"

%struct.timeval = type { i64, i64 }
%struct.settings = type { i64, i32, i32, i32, ptr, i32, i32, i32, ptr, ptr, i32, double, i32, i32, i32, i8, i32, i32, i8, i32, i32, i32, i32, i32, i32, i8, i8, i8, i8, i8, i8, i8, i32, i32, double, double, i32, i32, i8, i32, i8, i8, ptr, i32, i32, i32, i32, double, double, i32, i8, i32, i32, i32, i32, i32, i8, i8, i8, ptr, i32, i32, i32, i32, i32, i32, i32, i32, i32, i32, double, i8, i32, i32, ptr, i32 }
%struct.stats_state = type { i64, i64, i64, i64, float, i32, i32, i32, i32, i8, i8, i8, i8 }
%struct.event = type { %struct.event_callback, %union.anon.1, i32, ptr, %union.anon.3, i16, i16, %struct.timeval }
%struct.event_callback = type { %struct.anon.0, i16, i8, i8, %union.anon, ptr }
%struct.anon.0 = type { ptr, ptr }
%union.anon = type { ptr }
%union.anon.1 = type { %struct.anon.2 }
%struct.anon.2 = type { ptr, ptr }
%union.anon.3 = type { %struct.anon.4 }
%struct.anon.4 = type { %struct.anon.5, %struct.timeval }
%struct.anon.5 = type { ptr, ptr }
%struct.timespec = type { i64, i64 }

@process_started = dso_local global i64 0, align 8
@current_time = dso_local global i32 0, align 4
@settings = dso_local global %struct.settings zeroinitializer, align 8
@stats_state = dso_local global %struct.stats_state zeroinitializer, align 8
@main_base = internal global ptr null, align 8
@monotonic = internal global i8 0, align 1
@monotonic_start = internal global i64 0, align 8
@is_paused = dso_local global i8 0, align 1
@delta = dso_local global i64 0, align 8
@__const.clock_handler.t = private unnamed_addr constant %struct.timeval { i64 1, i64 0 }, align 8
@clock_handler.initialized = internal global i8 0, align 1
@clockevent = internal global %struct.event zeroinitializer, align 8

; Function Attrs: nounwind uwtable
define internal void @clock_handler(i32 noundef %0, i16 noundef signext %1, ptr noundef %2) #0 {
  %4 = alloca i32, align 4
  %5 = alloca i16, align 2
  %6 = alloca ptr, align 8
  %7 = alloca %struct.timeval, align 8
  %8 = alloca i32, align 4
  %9 = alloca %struct.timespec, align 8
  %10 = alloca %struct.timeval, align 8
  store i32 %0, ptr %4, align 4, !tbaa !8
  store i16 %1, ptr %5, align 2, !tbaa !79
  store ptr %2, ptr %6, align 8, !tbaa !68
  call void @llvm.lifetime.start.p0(i64 16, ptr %7) #15
  call void @llvm.memcpy.p0.p0.i64(ptr align 8 %7, ptr align 8 @__const.clock_handler.t, i64 16, i1 false)
  %11 = load i8, ptr @clock_handler.initialized, align 1, !tbaa !57, !range !59, !noundef !60
  %12 = trunc i8 %11 to i1
  br i1 %12, label %13, label %15

13:                                               ; preds = %3
  %14 = call i32 @event_del(ptr noundef @clockevent)
  br label %16

15:                                               ; preds = %3
  store i8 1, ptr @clock_handler.initialized, align 1, !tbaa !57
  br label %16

16:                                               ; preds = %15, %13
  %17 = load i64, ptr @stats_state, align 8, !tbaa !321
  call void @assoc_start_expand(i64 noundef %17)
  %18 = load volatile i32, ptr getelementptr inbounds nuw (%struct.settings, ptr @settings, i32 0, i32 24), align 8, !tbaa !376
  %19 = icmp ne i32 %18, 0
  br i1 %19, label %20, label %23

20:                                               ; preds = %16
  store volatile i32 0, ptr getelementptr inbounds nuw (%struct.settings, ptr @settings, i32 0, i32 24), align 8, !tbaa !376
  %21 = load ptr, ptr getelementptr inbounds nuw (%struct.settings, ptr @settings, i32 0, i32 9), align 8, !tbaa !125
  %22 = call i32 @authfile_load(ptr noundef %21)
  br label %23

23:                                               ; preds = %20, %16
  call void @event_set(ptr noundef @clockevent, i32 noundef -1, i16 noundef signext 0, ptr noundef @clock_handler, ptr noundef null)
  %24 = load ptr, ptr @main_base, align 8, !tbaa !106
  %25 = call i32 @event_base_set(ptr noundef %24, ptr noundef @clockevent)
  %26 = call i32 @event_add(ptr noundef @clockevent, ptr noundef %7)
  %27 = load volatile i8, ptr @is_paused, align 1, !tbaa !57, !range !59, !noundef !60
  %28 = trunc i8 %27 to i1
  br i1 %28, label %29, label %30

29:                                               ; preds = %23
  store i32 1, ptr %8, align 4
  br label %55

30:                                               ; preds = %23
  %31 = load i8, ptr @monotonic, align 1, !tbaa !57, !range !59, !noundef !60
  %32 = trunc i8 %31 to i1
  br i1 %32, label %33, label %46

33:                                               ; preds = %30
  call void @llvm.lifetime.start.p0(i64 16, ptr %9) #15
  %34 = call i32 @clock_gettime(i32 noundef 1, ptr noundef %9) #15
  %35 = icmp eq i32 %34, -1
  br i1 %35, label %36, label %37

36:                                               ; preds = %33
  store i32 1, ptr %8, align 4
  br label %45

37:                                               ; preds = %33
  %38 = getelementptr inbounds nuw %struct.timespec, ptr %9, i32 0, i32 0
  %39 = load i64, ptr %38, align 8, !tbaa !371
  %40 = load i64, ptr @monotonic_start, align 8, !tbaa !4
  %41 = sub nsw i64 %39, %40
  %42 = load volatile i64, ptr @delta, align 8, !tbaa !4
  %43 = add nsw i64 %41, %42
  %44 = trunc i64 %43 to i32
  store volatile i32 %44, ptr @current_time, align 4, !tbaa !8
  store i32 1, ptr %8, align 4
  br label %45

45:                                               ; preds = %37, %36
  call void @llvm.lifetime.end.p0(i64 16, ptr %9) #15
  br label %55

46:                                               ; preds = %30
  call void @llvm.lifetime.start.p0(i64 16, ptr %10) #15
  %47 = call i32 @gettimeofday(ptr noundef %10, ptr noundef null) #15
  %48 = getelementptr inbounds nuw %struct.timeval, ptr %10, i32 0, i32 0
  %49 = load i64, ptr %48, align 8, !tbaa !336
  %50 = load i64, ptr @process_started, align 8, !tbaa !4
  %51 = sub nsw i64 %49, %50
  %52 = load volatile i64, ptr @delta, align 8, !tbaa !4
  %53 = add nsw i64 %51, %52
  %54 = trunc i64 %53 to i32
  store volatile i32 %54, ptr @current_time, align 4, !tbaa !8
  call void @llvm.lifetime.end.p0(i64 16, ptr %10) #15
  store i32 0, ptr %8, align 4
  br label %55

55:                                               ; preds = %46, %45, %29
  call void @llvm.lifetime.end.p0(i64 16, ptr %7) #15
  %56 = load i32, ptr %8, align 4
  switch i32 %56, label %58 [
    i32 0, label %57
    i32 1, label %57
  ]

57:                                               ; preds = %55, %55
  ret void

58:                                               ; preds = %55
  unreachable
}