; Function Attrs: nounwind uwtable
define internal void @clock_handler(i32 %0, i16 signext %1, ptr readnone captures(none) %2) #1 {
  %4 = alloca %struct.timeval, align 8
  %5 = alloca %struct.timespec, align 8
  %6 = alloca %struct.timeval, align 8
  call void @llvm.lifetime.start.p0(i64 16, ptr nonnull %4) #34
  call void @llvm.memcpy.p0.p0.i64(ptr noundef nonnull align 8 dereferenceable(16) %4, ptr noundef nonnull align 8 dereferenceable(16) @__const.clock_handler.t, i64 16, i1 false)
  %.b12 = load i1, ptr @clock_handler.initialized, align 1
  br i1 %.b12, label %7, label %9

7:                                                ; preds = %3
  %8 = tail call i32 @event_del(ptr noundef nonnull @clockevent) #34
  br label %10

9:                                                ; preds = %3
  store i1 true, ptr @clock_handler.initialized, align 1
  br label %10

10:                                               ; preds = %9, %7
  %11 = load i64, ptr @stats_state, align 8, !tbaa !312
  tail call void @assoc_start_expand(i64 noundef %11) #34
  %12 = load volatile i32, ptr getelementptr inbounds nuw (i8, ptr @settings, i64 128), align 8, !tbaa !362
  %.not = icmp eq i32 %12, 0
  br i1 %.not, label %16, label %13

13:                                               ; preds = %10
  store volatile i32 0, ptr getelementptr inbounds nuw (i8, ptr @settings, i64 128), align 8, !tbaa !362
  %14 = load ptr, ptr getelementptr inbounds nuw (i8, ptr @settings, i64 56), align 8, !tbaa !151
  %15 = tail call i32 @authfile_load(ptr noundef %14) #34
  br label %16

16:                                               ; preds = %13, %10
  tail call void @event_set(ptr noundef nonnull @clockevent, i32 noundef -1, i16 noundef signext 0, ptr noundef nonnull @clock_handler, ptr noundef null) #34
  %17 = load ptr, ptr @main_base, align 8, !tbaa !325
  %18 = tail call i32 @event_base_set(ptr noundef %17, ptr noundef nonnull @clockevent) #34
  %19 = call i32 @event_add(ptr noundef nonnull @clockevent, ptr noundef nonnull %4) #34
  %20 = load volatile i8, ptr @is_paused, align 1, !tbaa !160, !range !60, !noundef !61
  %21 = trunc nuw i8 %20 to i1
  br i1 %21, label %42, label %22

22:                                               ; preds = %16
  %.b3 = load i1, ptr @monotonic, align 1
  br i1 %.b3, label %23, label %34

23:                                               ; preds = %22
  call void @llvm.lifetime.start.p0(i64 16, ptr nonnull %5) #34
  %24 = call i32 @clock_gettime(i32 noundef 1, ptr noundef nonnull %5) #34
  %25 = icmp eq i32 %24, -1
  br i1 %25, label %33, label %26

26:                                               ; preds = %23
  %27 = load i64, ptr %5, align 8, !tbaa !353
  %28 = load i64, ptr @monotonic_start, align 8, !tbaa !4
  %29 = sub i64 %27, %28
  %30 = load volatile i64, ptr @delta, align 8, !tbaa !4
  %31 = add nsw i64 %29, %30
  %32 = trunc i64 %31 to i32
  store volatile i32 %32, ptr @current_time, align 4, !tbaa !8
  br label %33

33:                                               ; preds = %23, %26
  call void @llvm.lifetime.end.p0(i64 16, ptr nonnull %5) #34
  br label %42

34:                                               ; preds = %22
  call void @llvm.lifetime.start.p0(i64 16, ptr nonnull %6) #34
  %35 = call i32 @gettimeofday(ptr noundef nonnull %6, ptr noundef null) #34
  %36 = load i64, ptr %6, align 8, !tbaa !321
  %37 = load i64, ptr @process_started, align 8, !tbaa !4
  %38 = sub i64 %36, %37
  %39 = load volatile i64, ptr @delta, align 8, !tbaa !4
  %40 = add nsw i64 %38, %39
  %41 = trunc i64 %40 to i32
  store volatile i32 %41, ptr @current_time, align 4, !tbaa !8
  call void @llvm.lifetime.end.p0(i64 16, ptr nonnull %6) #34
  br label %42

42:                                               ; preds = %16, %34, %33
  call void @llvm.lifetime.end.p0(i64 16, ptr nonnull %4) #34
  ret void
}